target datalayout = "e-m:e-p270:32:32-p271:32:32-p272:64:64-i64:64-i128:128-f80:128-n8:16:32:64-S128"
target triple = "x86_64-pc-linux-gnu"

%struct.TuplesortPublic = type { ptr, ptr, ptr, ptr, ptr, ptr, ptr, ptr, ptr, i8, i32, ptr, ptr, i32, i8, ptr }
%struct.SortSupportData = type { ptr, i32, i8, i8, i16, ptr, ptr, i8, ptr, ptr, ptr }
%struct.RelationData = type { %struct.RelFileLocator, ptr, i32, i32, i8, i8, i8, i8, i8, i32, i32, i32, i32, ptr, ptr, i32, %struct.LockInfoData, ptr, ptr, ptr, ptr, ptr, i8, ptr, ptr, ptr, ptr, ptr, ptr, i32, ptr, i8, ptr, ptr, i32, i8, i32, ptr, i8, ptr, ptr, ptr, ptr, ptr, ptr, ptr, i32, ptr, ptr, ptr, ptr, ptr, ptr, ptr, ptr, ptr, ptr, ptr, ptr, ptr, ptr, ptr, ptr, ptr, ptr, ptr, i32, i8, ptr }
%struct.RelFileLocator = type { i32, i32, i32 }
%struct.LockInfoData = type { %struct.LockRelId }
%struct.LockRelId = type { i32, i32 }
%struct.FormData_pg_index = type { i32, i32, i16, i16, i8, i8, i8, i8, i8, i8, i8, i8, i8, i8, i8, %struct.int2vector }
%struct.int2vector = type { i32, i32, i32, i32, i32, i32, [0 x i16] }
%struct.TuplesortIndexBTreeArg = type { %struct.TuplesortIndexArg, i8, i8 }
%struct.TuplesortIndexArg = type { ptr, ptr }

@trace_sort = external global i8, align 1
@.str.1 = private unnamed_addr constant [20 x i8] c"tuplesortvariants.c\00", align 1
@CurrentMemoryContext = external global ptr, align 8
@.str.4 = private unnamed_addr constant [50 x i8] c"begin index sort: workMem = %d, randomAccess = %c\00", align 1
@__func__.tuplesort_begin_index_gist = private unnamed_addr constant [27 x i8] c"tuplesort_begin_index_gist\00", align 1

; Function Attrs: inlinehint nounwind uwtable
define internal ptr @MemoryContextSwitchTo(ptr noundef %0) #3 {
  %2 = alloca ptr, align 8
  %3 = alloca ptr, align 8
  store ptr %0, ptr %2, align 8
  call void @llvm.lifetime.start.p0(i64 8, ptr %3) #6
  %4 = load ptr, ptr @CurrentMemoryContext, align 8
  store ptr %4, ptr %3, align 8
  %5 = load ptr, ptr %2, align 8
  store ptr %5, ptr @CurrentMemoryContext, align 8
  %6 = load ptr, ptr %3, align 8
  call void @llvm.lifetime.end.p0(i64 8, ptr %3) #6
  ret ptr %6
}

; Function Attrs: nounwind uwtable
define dso_local ptr @tuplesort_begin_index_gist(ptr noundef %0, ptr noundef %1, i32 noundef %2, ptr noundef %3, i32 noundef %4) #0 {
  %6 = alloca ptr, align 8
  %7 = alloca ptr, align 8
  %8 = alloca i32, align 4
  %9 = alloca ptr, align 8
  %10 = alloca i32, align 4
  %11 = alloca ptr, align 8
  %12 = alloca ptr, align 8
  %13 = alloca ptr, align 8
  %14 = alloca ptr, align 8
  %15 = alloca i32, align 4
  %16 = alloca ptr, align 8
  store ptr %0, ptr %6, align 8
  store ptr %1, ptr %7, align 8
  store i32 %2, ptr %8, align 4
  store ptr %3, ptr %9, align 8
  store i32 %4, ptr %10, align 4
  call void @llvm.lifetime.start.p0(i64 8, ptr %11) #6
  %17 = load i32, ptr %8, align 4
  %18 = load ptr, ptr %9, align 8
  %19 = load i32, ptr %10, align 4
  %20 = call ptr @tuplesort_begin_common(i32 noundef %17, ptr noundef %18, i32 noundef %19)
  store ptr %20, ptr %11, align 8
  call void @llvm.lifetime.start.p0(i64 8, ptr %12) #6
  %21 = load ptr, ptr %11, align 8
  store ptr %21, ptr %12, align 8
  call void @llvm.lifetime.start.p0(i64 8, ptr %13) #6
  call void @llvm.lifetime.start.p0(i64 8, ptr %14) #6
  call void @llvm.lifetime.start.p0(i64 4, ptr %15) #6
  %22 = load ptr, ptr %12, align 8
  %23 = getelementptr inbounds nuw %struct.TuplesortPublic, ptr %22, i32 0, i32 6
  %24 = load ptr, ptr %23, align 8
  %25 = call ptr @MemoryContextSwitchTo(ptr noundef %24)
  store ptr %25, ptr %13, align 8
  %26 = call ptr @palloc(i64 noundef 24)
  store ptr %26, ptr %14, align 8
  %27 = load i8, ptr @trace_sort, align 1, !range !4, !noundef !5
  %28 = trunc i8 %27 to i1
  br i1 %28, label %29, label %45

29:                                               ; preds = %5
  br label %30

30:                                               ; preds = %29
  br i1 false, label %31, label %33

31:                                               ; preds = %30
  %32 = call zeroext i1 @errstart_cold(i32 noundef 15, ptr noundef null) #7
  br i1 %32, label %35, label %42

33:                                               ; preds = %30
  %34 = call zeroext i1 @errstart(i32 noundef 15, ptr noundef null)
  br i1 %34, label %35, label %42

35:                                               ; preds = %33, %31
  %36 = load i32, ptr %8, align 4
  %37 = load i32, ptr %10, align 4
  %38 = and i32 %37, 1
  %39 = icmp ne i32 %38, 0
  %40 = select i1 %39, i32 116, i32 102
  %41 = call i32 (ptr, ...) @errmsg_internal(ptr noundef @.str.4, i32 noundef %36, i32 noundef %40)
  call void @errfinish(ptr noundef @.str.1, i32 noundef 501, ptr noundef @__func__.tuplesort_begin_index_gist)
  br label %42

42:                                               ; preds = %35, %33, %31
  br label %43

43:                                               ; preds = %42
  br label %44

44:                                               ; preds = %43
  br label %45

45:                                               ; preds = %44, %5
  %46 = load ptr, ptr %7, align 8
  %47 = getelementptr inbounds nuw %struct.RelationData, ptr %46, i32 0, i32 48
  %48 = load ptr, ptr %47, align 8
  %49 = getelementptr inbounds nuw %struct.FormData_pg_index, ptr %48, i32 0, i32 3
  %50 = load i16, ptr %49, align 2
  %51 = sext i16 %50 to i32
  %52 = load ptr, ptr %12, align 8
  %53 = getelementptr inbounds nuw %struct.TuplesortPublic, ptr %52, i32 0, i32 10
  store i32 %51, ptr %53, align 4
  %54 = load ptr, ptr %12, align 8
  %55 = getelementptr inbounds nuw %struct.TuplesortPublic, ptr %54, i32 0, i32 2
  store ptr @removeabbrev_index, ptr %55, align 8
  %56 = load ptr, ptr %12, align 8
  %57 = getelementptr inbounds nuw %struct.TuplesortPublic, ptr %56, i32 0, i32 0
  store ptr @comparetup_index_btree, ptr %57, align 8
  %58 = load ptr, ptr %12, align 8
  %59 = getelementptr inbounds nuw %struct.TuplesortPublic, ptr %58, i32 0, i32 1
  store ptr @comparetup_index_btree_tiebreak, ptr %59, align 8
  %60 = load ptr, ptr %12, align 8
  %61 = getelementptr inbounds nuw %struct.TuplesortPublic, ptr %60, i32 0, i32 3
  store ptr @writetup_index, ptr %61, align 8
  %62 = load ptr, ptr %12, align 8
  %63 = getelementptr inbounds nuw %struct.TuplesortPublic, ptr %62, i32 0, i32 4
  store ptr @readtup_index, ptr %63, align 8
  %64 = load ptr, ptr %12, align 8
  %65 = getelementptr inbounds nuw %struct.TuplesortPublic, ptr %64, i32 0, i32 9
  store i8 1, ptr %65, align 8
  %66 = load ptr, ptr %14, align 8
  %67 = load ptr, ptr %12, align 8
  %68 = getelementptr inbounds nuw %struct.TuplesortPublic, ptr %67, i32 0, i32 15
  store ptr %66, ptr %68, align 8
  %69 = load ptr, ptr %6, align 8
  %70 = load ptr, ptr %14, align 8
  %71 = getelementptr inbounds nuw %struct.TuplesortIndexBTreeArg, ptr %70, i32 0, i32 0
  %72 = getelementptr inbounds nuw %struct.TuplesortIndexArg, ptr %71, i32 0, i32 0
  store ptr %69, ptr %72, align 8
  %73 = load ptr, ptr %7, align 8
  %74 = load ptr, ptr %14, align 8
  %75 = getelementptr inbounds nuw %struct.TuplesortIndexBTreeArg, ptr %74, i32 0, i32 0
  %76 = getelementptr inbounds nuw %struct.TuplesortIndexArg, ptr %75, i32 0, i32 1
  store ptr %73, ptr %76, align 8
  %77 = load ptr, ptr %14, align 8
  %78 = getelementptr inbounds nuw %struct.TuplesortIndexBTreeArg, ptr %77, i32 0, i32 1
  store i8 0, ptr %78, align 8
  %79 = load ptr, ptr %14, align 8
  %80 = getelementptr inbounds nuw %struct.TuplesortIndexBTreeArg, ptr %79, i32 0, i32 2
  store i8 0, ptr %80, align 1
  %81 = load ptr, ptr %12, align 8
  %82 = getelementptr inbounds nuw %struct.TuplesortPublic, ptr %81, i32 0, i32 10
  %83 = load i32, ptr %82, align 4
  %84 = sext i32 %83 to i64
  %85 = mul i64 %84, 64
  %86 = call ptr @palloc0(i64 noundef %85)
  %87 = load ptr, ptr %12, align 8
  %88 = getelementptr inbounds nuw %struct.TuplesortPublic, ptr %87, i32 0, i32 11
  store ptr %86, ptr %88, align 8
  store i32 0, ptr %15, align 4
  br label %89

89:                                               ; preds = %135, %45
  %90 = load i32, ptr %15, align 4
  %91 = load ptr, ptr %12, align 8
  %92 = getelementptr inbounds nuw %struct.TuplesortPublic, ptr %91, i32 0, i32 10
  %93 = load i32, ptr %92, align 4
  %94 = icmp slt i32 %90, %93
  br i1 %94, label %95, label %138

95:                                               ; preds = %89
  call void @llvm.lifetime.start.p0(i64 8, ptr %16) #6
  %96 = load ptr, ptr %12, align 8
  %97 = getelementptr inbounds nuw %struct.TuplesortPublic, ptr %96, i32 0, i32 11
  %98 = load ptr, ptr %97, align 8
  %99 = load i32, ptr %15, align 4
  %100 = sext i32 %99 to i64
  %101 = getelementptr inbounds %struct.SortSupportData, ptr %98, i64 %100
  store ptr %101, ptr %16, align 8
  %102 = load ptr, ptr @CurrentMemoryContext, align 8
  %103 = load ptr, ptr %16, align 8
  %104 = getelementptr inbounds nuw %struct.SortSupportData, ptr %103, i32 0, i32 0
  store ptr %102, ptr %104, align 8
  %105 = load ptr, ptr %7, align 8
  %106 = getelementptr inbounds nuw %struct.RelationData, ptr %105, i32 0, i32 62
  %107 = load ptr, ptr %106, align 8
  %108 = load i32, ptr %15, align 4
  %109 = sext i32 %108 to i64
  %110 = getelementptr inbounds i32, ptr %107, i64 %109
  %111 = load i32, ptr %110, align 4
  %112 = load ptr, ptr %16, align 8
  %113 = getelementptr inbounds nuw %struct.SortSupportData, ptr %112, i32 0, i32 1
  store i32 %111, ptr %113, align 8
  %114 = load ptr, ptr %16, align 8
  %115 = getelementptr inbounds nuw %struct.SortSupportData, ptr %114, i32 0, i32 3
  store i8 0, ptr %115, align 1
  %116 = load i32, ptr %15, align 4
  %117 = add i32 %116, 1
  %118 = trunc i32 %117 to i16
  %119 = load ptr, ptr %16, align 8
  %120 = getelementptr inbounds nuw %struct.SortSupportData, ptr %119, i32 0, i32 4
  store i16 %118, ptr %120, align 2
  %121 = load i32, ptr %15, align 4
  %122 = icmp eq i32 %121, 0
  br i1 %122, label %123, label %128

123:                                              ; preds = %95
  %124 = load ptr, ptr %12, align 8
  %125 = getelementptr inbounds nuw %struct.TuplesortPublic, ptr %124, i32 0, i32 9
  %126 = load i8, ptr %125, align 8, !range !4, !noundef !5
  %127 = trunc i8 %126 to i1
  br label %128

128:                                              ; preds = %123, %95
  %129 = phi i1 [ false, %95 ], [ %127, %123 ]
  %130 = load ptr, ptr %16, align 8
  %131 = getelementptr inbounds nuw %struct.SortSupportData, ptr %130, i32 0, i32 7
  %132 = zext i1 %129 to i8
  store i8 %132, ptr %131, align 8
  %133 = load ptr, ptr %7, align 8
  %134 = load ptr, ptr %16, align 8
  call void @PrepareSortSupportFromGistIndexRel(ptr noundef %133, ptr noundef %134)
  call void @llvm.lifetime.end.p0(i64 8, ptr %16) #6
  br label %135

135:                                              ; preds = %128
  %136 = load i32, ptr %15, align 4
  %137 = add i32 %136, 1
  store i32 %137, ptr %15, align 4
  br label %89, !llvm.loop !17

138:                                              ; preds = %89
  %139 = load ptr, ptr %13, align 8
  %140 = call ptr @MemoryContextSwitchTo(ptr noundef %139)
  %141 = load ptr, ptr %11, align 8
  call void @llvm.lifetime.end.p0(i64 4, ptr %15) #6
  call void @llvm.lifetime.end.p0(i64 8, ptr %14) #6
  call void @llvm.lifetime.end.p0(i64 8, ptr %13) #6
  call void @llvm.lifetime.end.p0(i64 8, ptr %12) #6
  call void @llvm.lifetime.end.p0(i64 8, ptr %11) #6
  ret ptr %141
}