; Function Attrs: nounwind uwtable
define dso_local ptr @tuplesort_begin_index_gist(ptr noundef %0, ptr noundef %1, i32 noundef %2, ptr noundef %3, i32 noundef %4) local_unnamed_addr #0 {
  %6 = tail call ptr @tuplesort_begin_common(i32 noundef %2, ptr noundef %3, i32 noundef %4) #12
  %7 = getelementptr inbounds nuw i8, ptr %6, i64 48
  %8 = load ptr, ptr %7, align 8
  %9 = load ptr, ptr @CurrentMemoryContext, align 8
  store ptr %8, ptr @CurrentMemoryContext, align 8
  %10 = tail call ptr @palloc(i64 noundef 24) #12
  %11 = load i8, ptr @trace_sort, align 1, !range !4, !noundef !5
  %12 = trunc nuw i8 %11 to i1
  br i1 %12, label %13, label %19

13:                                               ; preds = %5
  %14 = tail call zeroext i1 @errstart(i32 noundef 15, ptr noundef null) #12
  br i1 %14, label %15, label %19

15:                                               ; preds = %13
  %16 = and i32 %4, 1
  %.not = icmp eq i32 %16, 0
  %17 = select i1 %.not, i32 102, i32 116
  %18 = tail call i32 (ptr, ...) @errmsg_internal(ptr noundef nonnull @.str.4, i32 noundef %2, i32 noundef %17) #12
  tail call void @errfinish(ptr noundef nonnull @.str.1, i32 noundef 501, ptr noundef nonnull @__func__.tuplesort_begin_index_gist) #12
  br label %19

19:                                               ; preds = %13, %15, %5
  %20 = getelementptr inbounds nuw i8, ptr %1, i64 328
  %21 = load ptr, ptr %20, align 8
  %22 = getelementptr inbounds nuw i8, ptr %21, i64 10
  %23 = load i16, ptr %22, align 2
  %24 = sext i16 %23 to i32
  %25 = getelementptr inbounds nuw i8, ptr %6, i64 76
  store i32 %24, ptr %25, align 4
  %26 = getelementptr inbounds nuw i8, ptr %6, i64 16
  store ptr @removeabbrev_index, ptr %26, align 8
  store ptr @comparetup_index_btree, ptr %6, align 8
  %27 = getelementptr inbounds nuw i8, ptr %6, i64 8
  store ptr @comparetup_index_btree_tiebreak, ptr %27, align 8
  %28 = getelementptr inbounds nuw i8, ptr %6, i64 24
  store ptr @writetup_index, ptr %28, align 8
  %29 = getelementptr inbounds nuw i8, ptr %6, i64 32
  store ptr @readtup_index, ptr %29, align 8
  %30 = getelementptr inbounds nuw i8, ptr %6, i64 72
  store i8 1, ptr %30, align 8
  %31 = getelementptr inbounds nuw i8, ptr %6, i64 104
  store ptr %10, ptr %31, align 8
  store ptr %0, ptr %10, align 8
  %32 = getelementptr inbounds nuw i8, ptr %10, i64 8
  store ptr %1, ptr %32, align 8
  %33 = getelementptr inbounds nuw i8, ptr %10, i64 16
  store i8 0, ptr %33, align 8
  %34 = getelementptr inbounds nuw i8, ptr %10, i64 17
  store i8 0, ptr %34, align 1
  %35 = load i32, ptr %25, align 4
  %36 = sext i32 %35 to i64
  %37 = shl nsw i64 %36, 6
  %38 = tail call ptr @palloc0(i64 noundef %37) #12
  %39 = getelementptr inbounds nuw i8, ptr %6, i64 80
  store ptr %38, ptr %39, align 8
  %40 = load i32, ptr %25, align 4
  %41 = icmp sgt i32 %40, 0
  br i1 %41, label %.lr.ph, label %._crit_edge

.lr.ph:                                           ; preds = %19
  %42 = getelementptr inbounds nuw i8, ptr %1, i64 440
  br label %43

43:                                               ; preds = %.lr.ph, %57
  %indvars.iv = phi i64 [ 0, %.lr.ph ], [ %indvars.iv.next, %57 ]
  %44 = load ptr, ptr %39, align 8
  %45 = getelementptr inbounds nuw %struct.SortSupportData, ptr %44, i64 %indvars.iv
  %46 = load ptr, ptr @CurrentMemoryContext, align 8
  store ptr %46, ptr %45, align 8
  %47 = load ptr, ptr %42, align 8
  %48 = getelementptr inbounds nuw i32, ptr %47, i64 %indvars.iv
  %49 = load i32, ptr %48, align 4
  %50 = getelementptr inbounds nuw i8, ptr %45, i64 8
  store i32 %49, ptr %50, align 8
  %51 = getelementptr inbounds nuw i8, ptr %45, i64 13
  store i8 0, ptr %51, align 1
  %indvars.iv.next = add nuw nsw i64 %indvars.iv, 1
  %52 = trunc i64 %indvars.iv.next to i16
  %53 = getelementptr inbounds nuw i8, ptr %45, i64 14
  store i16 %52, ptr %53, align 2
  %54 = icmp eq i64 %indvars.iv, 0
  br i1 %54, label %55, label %57

55:                                               ; preds = %43
  %56 = load i8, ptr %30, align 8, !range !4, !noundef !5
  br label %57

57:                                               ; preds = %55, %43
  %58 = phi i8 [ 0, %43 ], [ %56, %55 ]
  %59 = getelementptr inbounds nuw i8, ptr %45, i64 32
  store i8 %58, ptr %59, align 8
  tail call void @PrepareSortSupportFromGistIndexRel(ptr noundef nonnull %1, ptr noundef nonnull %45) #12
  %60 = load i32, ptr %25, align 4
  %61 = sext i32 %60 to i64
  %62 = icmp slt i64 %indvars.iv.next, %61
  br i1 %62, label %43, label %._crit_edge, !llvm.loop !17

._crit_edge:                                      ; preds = %57, %19
  store ptr %9, ptr @CurrentMemoryContext, align 8
  ret ptr %6
}